target datalayout = "e-m:e-p270:32:32-p271:32:32-p272:64:64-i64:64-i128:128-f80:128-n8:16:32:64-S128"
target triple = "x86_64-pc-linux-gnu"

@sane_ctype = external constant [256 x i8], align 16

; Function Attrs: nounwind uwtable
define internal i32 @maildir_filename_cmp(ptr noundef %0, ptr noundef %1) #0 {
  %3 = alloca i32, align 4
  %4 = alloca ptr, align 8
  %5 = alloca ptr, align 8
  %6 = alloca i64, align 8
  %7 = alloca i64, align 8
  %8 = alloca i32, align 4
  store ptr %0, ptr %4, align 8, !tbaa !11
  store ptr %1, ptr %5, align 8, !tbaa !11
  br label %9

9:                                                ; preds = %77, %2
  %10 = load ptr, ptr %4, align 8, !tbaa !11
  %11 = load i8, ptr %10, align 1, !tbaa !15
  %12 = sext i8 %11 to i32
  %13 = icmp ne i32 %12, 0
  br i1 %13, label %14, label %19

14:                                               ; preds = %9
  %15 = load ptr, ptr %5, align 8, !tbaa !11
  %16 = load i8, ptr %15, align 1, !tbaa !15
  %17 = sext i8 %16 to i32
  %18 = icmp ne i32 %17, 0
  br label %19

19:                                               ; preds = %14, %9
  %20 = phi i1 [ false, %9 ], [ %18, %14 ]
  br i1 %20, label %21, label %78

21:                                               ; preds = %19
  %22 = load ptr, ptr %4, align 8, !tbaa !11
  %23 = load i8, ptr %22, align 1, !tbaa !15
  %24 = zext i8 %23 to i64
  %25 = getelementptr inbounds nuw [256 x i8], ptr @sane_ctype, i64 0, i64 %24
  %26 = load i8, ptr %25, align 1, !tbaa !15
  %27 = zext i8 %26 to i32
  %28 = and i32 %27, 2
  %29 = icmp ne i32 %28, 0
  br i1 %29, label %30, label %56

30:                                               ; preds = %21
  %31 = load ptr, ptr %5, align 8, !tbaa !11
  %32 = load i8, ptr %31, align 1, !tbaa !15
  %33 = zext i8 %32 to i64
  %34 = getelementptr inbounds nuw [256 x i8], ptr @sane_ctype, i64 0, i64 %33
  %35 = load i8, ptr %34, align 1, !tbaa !15
  %36 = zext i8 %35 to i32
  %37 = and i32 %36, 2
  %38 = icmp ne i32 %37, 0
  br i1 %38, label %39, label %56

39:                                               ; preds = %30
  call void @llvm.lifetime.start.p0(i64 8, ptr %6) #11
  call void @llvm.lifetime.start.p0(i64 8, ptr %7) #11
  %40 = load ptr, ptr %4, align 8, !tbaa !11
  %41 = call i64 @strtol(ptr noundef %40, ptr noundef %4, i32 noundef 10) #11
  store i64 %41, ptr %6, align 8, !tbaa !30
  %42 = load ptr, ptr %5, align 8, !tbaa !11
  %43 = call i64 @strtol(ptr noundef %42, ptr noundef %5, i32 noundef 10) #11
  store i64 %43, ptr %7, align 8, !tbaa !30
  %44 = load i64, ptr %6, align 8, !tbaa !30
  %45 = load i64, ptr %7, align 8, !tbaa !30
  %46 = icmp ne i64 %44, %45
  br i1 %46, label %47, label %52

47:                                               ; preds = %39
  %48 = load i64, ptr %6, align 8, !tbaa !30
  %49 = load i64, ptr %7, align 8, !tbaa !30
  %50 = sub nsw i64 %48, %49
  %51 = trunc i64 %50 to i32
  store i32 %51, ptr %3, align 4
  store i32 1, ptr %8, align 4
  br label %53

52:                                               ; preds = %39
  store i32 0, ptr %8, align 4
  br label %53

53:                                               ; preds = %52, %47
  call void @llvm.lifetime.end.p0(i64 8, ptr %7) #11
  call void @llvm.lifetime.end.p0(i64 8, ptr %6) #11
  %54 = load i32, ptr %8, align 4
  switch i32 %54, label %88 [
    i32 0, label %55
    i32 1, label %86
  ]

55:                                               ; preds = %53
  br label %77

56:                                               ; preds = %30, %21
  %57 = load ptr, ptr %4, align 8, !tbaa !11
  %58 = load i8, ptr %57, align 1, !tbaa !15
  %59 = sext i8 %58 to i32
  %60 = load ptr, ptr %5, align 8, !tbaa !11
  %61 = load i8, ptr %60, align 1, !tbaa !15
  %62 = sext i8 %61 to i32
  %63 = icmp ne i32 %59, %62
  br i1 %63, label %64, label %72

64:                                               ; preds = %56
  %65 = load ptr, ptr %4, align 8, !tbaa !11
  %66 = load i8, ptr %65, align 1, !tbaa !15
  %67 = zext i8 %66 to i32
  %68 = load ptr, ptr %5, align 8, !tbaa !11
  %69 = load i8, ptr %68, align 1, !tbaa !15
  %70 = zext i8 %69 to i32
  %71 = sub nsw i32 %67, %70
  store i32 %71, ptr %3, align 4
  br label %86

72:                                               ; preds = %56
  %73 = load ptr, ptr %4, align 8, !tbaa !11
  %74 = getelementptr inbounds nuw i8, ptr %73, i32 1
  store ptr %74, ptr %4, align 8, !tbaa !11
  %75 = load ptr, ptr %5, align 8, !tbaa !11
  %76 = getelementptr inbounds nuw i8, ptr %75, i32 1
  store ptr %76, ptr %5, align 8, !tbaa !11
  br label %77

77:                                               ; preds = %72, %55
  br label %9, !llvm.loop !42

78:                                               ; preds = %19
  %79 = load ptr, ptr %4, align 8, !tbaa !11
  %80 = load i8, ptr %79, align 1, !tbaa !15
  %81 = zext i8 %80 to i32
  %82 = load ptr, ptr %5, align 8, !tbaa !11
  %83 = load i8, ptr %82, align 1, !tbaa !15
  %84 = zext i8 %83 to i32
  %85 = sub nsw i32 %81, %84
  store i32 %85, ptr %3, align 4
  br label %86

86:                                               ; preds = %78, %64, %53
  %87 = load i32, ptr %3, align 4
  ret i32 %87

88:                                               ; preds = %53
  unreachable
}