; Function Attrs: nofree nounwind uwtable
define internal i32 @maildir_filename_cmp(ptr noundef %0, ptr noundef %1) #9 {
  %3 = alloca ptr, align 8
  %4 = alloca ptr, align 8
  store ptr %0, ptr %3, align 8, !tbaa !4
  store ptr %1, ptr %4, align 8, !tbaa !4
  %5 = load i8, ptr %0, align 1, !tbaa !9
  %.not21 = icmp eq i8 %5, 0
  br i1 %.not21, label %.critedge, label %.lr.ph

.lr.ph:                                           ; preds = %2, %31
  %6 = phi i8 [ %33, %31 ], [ %5, %2 ]
  %7 = phi ptr [ %32, %31 ], [ %0, %2 ]
  %8 = load ptr, ptr %4, align 8, !tbaa !4
  %9 = load i8, ptr %8, align 1, !tbaa !9
  %.not9 = icmp eq i8 %9, 0
  br i1 %.not9, label %.critedge.loopexitsplit, label %10

10:                                               ; preds = %.lr.ph
  %11 = zext i8 %6 to i64
  %12 = getelementptr inbounds nuw [256 x i8], ptr @sane_ctype, i64 0, i64 %11
  %13 = load i8, ptr %12, align 1, !tbaa !9
  %14 = and i8 %13, 2
  %.not10 = icmp eq i8 %14, 0
  br i1 %.not10, label %23, label %15

15:                                               ; preds = %10
  %16 = zext i8 %9 to i64
  %17 = getelementptr inbounds nuw [256 x i8], ptr @sane_ctype, i64 0, i64 %16
  %18 = load i8, ptr %17, align 1, !tbaa !9
  %19 = and i8 %18, 2
  %.not11 = icmp eq i8 %19, 0
  br i1 %.not11, label %23, label %20

20:                                               ; preds = %15
  %21 = call i64 @strtol(ptr noundef nonnull %7, ptr noundef nonnull %3, i32 noundef 10) #16
  %22 = call i64 @strtol(ptr noundef nonnull %8, ptr noundef nonnull %4, i32 noundef 10) #16
  %.not13.not = icmp eq i64 %21, %22
  br i1 %.not13.not, label %._crit_edge, label %.loopexit

._crit_edge:                                      ; preds = %20
  %.pre = load ptr, ptr %3, align 8, !tbaa !4
  br label %31

23:                                               ; preds = %15, %10
  %.not12 = icmp eq i8 %6, %9
  br i1 %.not12, label %28, label %24

24:                                               ; preds = %23
  %25 = zext i8 %6 to i32
  %26 = zext i8 %9 to i32
  %27 = sub nsw i32 %25, %26
  br label %41

28:                                               ; preds = %23
  %29 = getelementptr inbounds nuw i8, ptr %7, i64 1
  store ptr %29, ptr %3, align 8, !tbaa !4
  %30 = getelementptr inbounds nuw i8, ptr %8, i64 1
  store ptr %30, ptr %4, align 8, !tbaa !4
  br label %31

31:                                               ; preds = %._crit_edge, %28
  %32 = phi ptr [ %.pre, %._crit_edge ], [ %29, %28 ]
  %33 = load i8, ptr %32, align 1, !tbaa !9
  %.not = icmp eq i8 %33, 0
  br i1 %.not, label %..critedge.loopexit_crit_edge, label %.lr.ph, !llvm.loop !36

..critedge.loopexit_crit_edge:                    ; preds = %31
  %.pre31.pre = load ptr, ptr %4, align 8, !tbaa !4
  br label %.critedge

.critedge.loopexitsplit:                          ; preds = %.lr.ph
  %34 = zext i8 %6 to i32
  br label %.critedge

.critedge:                                        ; preds = %..critedge.loopexit_crit_edge, %.critedge.loopexitsplit, %2
  %35 = phi ptr [ %1, %2 ], [ %.pre31.pre, %..critedge.loopexit_crit_edge ], [ %8, %.critedge.loopexitsplit ]
  %.lcssa14 = phi i32 [ 0, %2 ], [ 0, %..critedge.loopexit_crit_edge ], [ %34, %.critedge.loopexitsplit ]
  %36 = load i8, ptr %35, align 1, !tbaa !9
  %37 = zext i8 %36 to i32
  %38 = sub nsw i32 %.lcssa14, %37
  br label %41

.loopexit:                                        ; preds = %20
  %39 = sub nsw i64 %21, %22
  %40 = trunc i64 %39 to i32
  br label %41

41:                                               ; preds = %.loopexit, %.critedge, %24
  %.2 = phi i32 [ %27, %24 ], [ %38, %.critedge ], [ %40, %.loopexit ]
  ret i32 %.2
}